; ModuleID = '54/1366.cpp'
source_filename = "54/1366.cpp"
target datalayout = "e-m:e-p270:32:32-p271:32:32-p272:64:64-i64:64-f80:128-n8:16:32:64-S128"
target triple = "x86_64-pc-linux-gnu"

%"class.std::ios_base::Init" = type { i8 }
%"class.std::basic_istream" = type { i32 (...)**, i64, %"class.std::basic_ios" }
%"class.std::basic_ios" = type { %"class.std::ios_base", %"class.std::basic_ostream"*, i8, i8, %"class.std::basic_streambuf"*, %"class.std::ctype"*, %"class.std::num_put"*, %"class.std::num_get"* }
%"class.std::ios_base" = type { i32 (...)**, i64, i64, i32, i32, i32, %"struct.std::ios_base::_Callback_list"*, %"struct.std::ios_base::_Words", [8 x %"struct.std::ios_base::_Words"], i32, %"struct.std::ios_base::_Words"*, %"class.std::locale" }
%"struct.std::ios_base::_Callback_list" = type { %"struct.std::ios_base::_Callback_list"*, void (i32, %"class.std::ios_base"*, i32)*, i32, i32 }
%"struct.std::ios_base::_Words" = type { i8*, i64 }
%"class.std::locale" = type { %"class.std::locale::_Impl"* }
%"class.std::locale::_Impl" = type { i32, %"class.std::locale::facet"**, i64, %"class.std::locale::facet"**, i8** }
%"class.std::locale::facet" = type <{ i32 (...)**, i32, [4 x i8] }>
%"class.std::basic_ostream" = type { i32 (...)**, %"class.std::basic_ios" }
%"class.std::basic_streambuf" = type { i32 (...)**, i8*, i8*, i8*, i8*, i8*, i8*, %"class.std::locale" }
%"class.std::ctype" = type <{ %"class.std::locale::facet.base", [4 x i8], %struct.__locale_struct*, i8, [7 x i8], i32*, i32*, i16*, i8, [256 x i8], [256 x i8], i8, [6 x i8] }>
%"class.std::locale::facet.base" = type <{ i32 (...)**, i32 }>
%struct.__locale_struct = type { [13 x %struct.__locale_data*], i16*, i32*, i32*, [13 x i8*] }
%struct.__locale_data = type opaque
%"class.std::num_put" = type { %"class.std::locale::facet.base", [4 x i8] }
%"class.std::num_get" = type { %"class.std::locale::facet.base", [4 x i8] }

@_ZStL8__ioinit = internal global %"class.std::ios_base::Init" zeroinitializer, align 1
@__dso_handle = external hidden global i8
@_ZSt3cin = external dso_local global %"class.std::basic_istream", align 8
@_ZSt4cout = external dso_local global %"class.std::basic_ostream", align 8
@llvm.global_ctors = appending global [1 x { i32, void ()*, i8* }] [{ i32, void ()*, i8* } { i32 65535, void ()* @_GLOBAL__sub_I_1366.cpp, i8* null }]

; Function Attrs: noinline uwtable
define internal void @__cxx_global_var_init() #0 section ".text.startup" {
  call void @_ZNSt8ios_base4InitC1Ev(%"class.std::ios_base::Init"* @_ZStL8__ioinit)
  %1 = call i32 @__cxa_atexit(void (i8*)* bitcast (void (%"class.std::ios_base::Init"*)* @_ZNSt8ios_base4InitD1Ev to void (i8*)*), i8* getelementptr inbounds (%"class.std::ios_base::Init", %"class.std::ios_base::Init"* @_ZStL8__ioinit, i32 0, i32 0), i8* @__dso_handle) #3
  ret void
}

declare dso_local void @_ZNSt8ios_base4InitC1Ev(%"class.std::ios_base::Init"*) unnamed_addr #1

; Function Attrs: nounwind
declare dso_local void @_ZNSt8ios_base4InitD1Ev(%"class.std::ios_base::Init"*) unnamed_addr #2

; Function Attrs: nounwind
declare dso_local i32 @__cxa_atexit(void (i8*)*, i8*, i8*) #3

; Function Attrs: noinline norecurse uwtable
define dso_local i32 @main() #4 {
  %1 = alloca i32, align 4
  %2 = alloca i32, align 4
  %3 = alloca i32, align 4
  %4 = alloca i32, align 4
  %5 = alloca i32, align 4
  %6 = alloca i32, align 4
  %7 = alloca i32, align 4
  %8 = alloca [100 x i32], align 16
  %9 = alloca i32, align 4
  store i32 0, i32* %1, align 4
  %10 = call dereferenceable(280) %"class.std::basic_istream"* @_ZNSirsERi(%"class.std::basic_istream"* @_ZSt3cin, i32* dereferenceable(4) %3)
  %11 = call dereferenceable(280) %"class.std::basic_istream"* @_ZNSirsERi(%"class.std::basic_istream"* %10, i32* dereferenceable(4) %4)
  %12 = load i32, i32* %3, align 4
  %13 = load i32, i32* %4, align 4
  %14 = add nsw i32 %12, %13
  store i32 %14, i32* %7, align 4
  br label %15

15:                                               ; preds = %0, %72
  %16 = load i32, i32* %7, align 4
  %17 = load i32, i32* %3, align 4
  %18 = sext i32 %17 to i64
  %19 = getelementptr inbounds [100 x i32], [100 x i32]* %8, i64 0, i64 %18
  store i32 %16, i32* %19, align 4
  store i32 0, i32* %5, align 4
  store i32 0, i32* %6, align 4
  store i32 0, i32* %9, align 4
  br label %20

20:                                               ; preds = %60, %15
  %21 = load i32, i32* %9, align 4
  %22 = load i32, i32* %3, align 4
  %23 = sub nsw i32 %22, 1
  %24 = icmp slt i32 %21, %23
  br i1 %24, label %25, label %63

25:                                               ; preds = %20
  %26 = load i32, i32* %3, align 4
  %27 = load i32, i32* %9, align 4
  %28 = sub nsw i32 %26, %27
  %29 = sext i32 %28 to i64
  %30 = getelementptr inbounds [100 x i32], [100 x i32]* %8, i64 0, i64 %29
  %31 = load i32, i32* %30, align 4
  %32 = load i32, i32* %3, align 4
  %33 = sub nsw i32 %32, 1
  %34 = sdiv i32 %31, %33
  %35 = load i32, i32* %3, align 4
  %36 = mul nsw i32 %34, %35
  %37 = load i32, i32* %4, align 4
  %38 = add nsw i32 %36, %37
  %39 = load i32, i32* %3, align 4
  %40 = load i32, i32* %9, align 4
  %41 = sub nsw i32 %39, %40
  %42 = sub nsw i32 %41, 1
  %43 = sext i32 %42 to i64
  %44 = getelementptr inbounds [100 x i32], [100 x i32]* %8, i64 0, i64 %43
  store i32 %38, i32* %44, align 4
  %45 = load i32, i32* %3, align 4
  %46 = load i32, i32* %9, align 4
  %47 = sub nsw i32 %45, %46
  %48 = sext i32 %47 to i64
  %49 = getelementptr inbounds [100 x i32], [100 x i32]* %8, i64 0, i64 %48
  %50 = load i32, i32* %49, align 4
  %51 = load i32, i32* %3, align 4
  %52 = sub nsw i32 %51, 1
  %53 = srem i32 %50, %52
  %54 = icmp eq i32 %53, 0
  br i1 %54, label %55, label %58

55:                                               ; preds = %25
  %56 = load i32, i32* %5, align 4
  %57 = add nsw i32 %56, 1
  store i32 %57, i32* %5, align 4
  br label %59

58:                                               ; preds = %25
  br label %63

59:                                               ; preds = %55
  br label %60

60:                                               ; preds = %59
  %61 = load i32, i32* %9, align 4
  %62 = add nsw i32 %61, 1
  store i32 %62, i32* %9, align 4
  br label %20

63:                                               ; preds = %58, %20
  %64 = load i32, i32* %5, align 4
  %65 = load i32, i32* %3, align 4
  %66 = sub nsw i32 %65, 1
  %67 = icmp eq i32 %64, %66
  br i1 %67, label %68, label %72

68:                                               ; preds = %63
  %69 = getelementptr inbounds [100 x i32], [100 x i32]* %8, i64 0, i64 1
  %70 = load i32, i32* %69, align 4
  %71 = call dereferenceable(272) %"class.std::basic_ostream"* @_ZNSolsEi(%"class.std::basic_ostream"* @_ZSt4cout, i32 %70)
  br label %76

72:                                               ; preds = %63
  %73 = load i32, i32* %7, align 4
  %74 = load i32, i32* %3, align 4
  %75 = add nsw i32 %73, %74
  store i32 %75, i32* %7, align 4
  br label %15

76:                                               ; preds = %68
  ret i32 0
}

declare dso_local dereferenceable(280) %"class.std::basic_istream"* @_ZNSirsERi(%"class.std::basic_istream"*, i32* dereferenceable(4)) #1

declare dso_local dereferenceable(272) %"class.std::basic_ostream"* @_ZNSolsEi(%"class.std::basic_ostream"*, i32) #1

; Function Attrs: noinline uwtable
define internal void @_GLOBAL__sub_I_1366.cpp() #0 section ".text.startup" {
  call void @__cxx_global_var_init()
  ret void
}


!llvm.module.flags = !{!0}
!llvm.ident = !{!1}

!0 = !{i32 1, !"wchar_size", i32 4}
!1 = !{!"clang version 10.0.0-4ubuntu1 "}
